S'google.visualization.Query.setResponse({"status":"ok","table":{"rows":[{"c":[{"v":"Chrome"},{"v":222.0}]},{"c":[{"v":"Safari"},{"v":74.0}]},{"c":[{"v":"Firefox"},{"v":59.0}]},{"c":[{"v":"Internet Explorer"},{"v":13.0}]}],"cols":[{"type":"string","id":"Category","label":"Category"},{"type":"number","id":"Browsers","label":"Browsers"}]},"reqId":"__REQ_ID__","version":"0.6"});'
p0
.