S'google.visualization.Query.setResponse({"status":"ok","table":{"rows":[{"c":[{"v":"New Visitor"},{"v":971.0}]},{"c":[{"v":"Returning Visitor"},{"v":1121.0}]}],"cols":[{"type":"string","id":"Category","label":"Category"},{"type":"number","id":"Page Views","label":"Page Views"}]},"reqId":"__REQ_ID__","version":"0.6"});'
p0
.